; Function Attrs: mustprogress nofree norecurse nosync nounwind willreturn memory(read, inaccessiblemem: none) uwtable
define noundef i64 @_ZNK5faiss16ZnSphereCodecRec6get_nvEii(ptr noundef nonnull readonly align 8 captures(none) dereferenceable(112) %0, i32 noundef %1, i32 noundef %2) local_unnamed_addr #10 align 2 {
  %4 = getelementptr inbounds nuw i8, ptr %0, i64 32
  %5 = getelementptr inbounds nuw i8, ptr %0, i64 20
  %6 = load i32, ptr %5, align 4, !tbaa !46
  %7 = add nsw i32 %6, 1
  %8 = mul nsw i32 %7, %1
  %9 = add nsw i32 %8, %2
  %10 = sext i32 %9 to i64
  %11 = load ptr, ptr %4, align 8, !tbaa !69
  %12 = getelementptr inbounds nuw i64, ptr %11, i64 %10
  %13 = load i64, ptr %12, align 8, !tbaa !44
  ret i64 %13
}